; Function Attrs: mustprogress nounwind uwtable
define dso_local void @_ZN5clang12CXXScopeSpec6ExtendERNS_10ASTContextEPNS_18NamespaceAliasDeclENS_14SourceLocationES5_(ptr noundef nonnull align 8 dereferenceable(48) %0, ptr noundef nonnull align 8 dereferenceable(23096) %1, ptr noundef %2, i32 %3, i32 %4) local_unnamed_addr #2 align 2 {
  %6 = getelementptr inbounds nuw i8, ptr %0, i64 8
  tail call void @_ZN5clang29NestedNameSpecifierLocBuilder6ExtendERNS_10ASTContextEPNS_18NamespaceAliasDeclENS_14SourceLocationES5_(ptr noundef nonnull align 8 dereferenceable(24) %6, ptr noundef nonnull align 8 dereferenceable(23096) %1, ptr noundef %2, i32 %3, i32 %4) #21
  %.sroa.0.0.copyload.i = load i32, ptr %0, align 8
  %7 = icmp eq i32 %.sroa.0.0.copyload.i, 0
  br i1 %7, label %8, label %9

8:                                                ; preds = %5
  store i32 %3, ptr %0, align 8
  br label %9

9:                                                ; preds = %8, %5
  %10 = getelementptr inbounds nuw i8, ptr %0, i64 4
  store i32 %4, ptr %10, align 4
  ret void
}